target datalayout = "e-m:e-p270:32:32-p271:32:32-p272:64:64-i64:64-i128:128-f80:128-n8:16:32:64-S128"
target triple = "x86_64-pc-linux-gnu"

%"class.cv::Range" = type { i32, i32 }
%"class.cv::ParallelLoopBody" = type { ptr }
%"struct.cv::hal::cpu_baseline::(anonymous namespace)::YUV420p2RGB8Invoker" = type { %"class.cv::ParallelLoopBody", ptr, i64, i32, ptr, ptr, ptr, i64, i32, i32 }

@_ZTVN2cv16ParallelLoopBodyE = external unnamed_addr constant { [5 x ptr] }, align 8

; Function Attrs: mustprogress nounwind uwtable
define linkonce_odr hidden void @_ZN2cv16ParallelLoopBodyC2Ev(ptr noundef nonnull align 8 dereferenceable(8) %0) unnamed_addr #2 comdat align 2 {
  %2 = alloca ptr, align 8
  store ptr %0, ptr %2, align 8
  %3 = load ptr, ptr %2, align 8
  store ptr getelementptr inbounds inrange(-16, 24) ({ [5 x ptr] }, ptr @_ZTVN2cv16ParallelLoopBodyE, i32 0, i32 0, i32 2), ptr %3, align 8
  ret void
}

; Function Attrs: mustprogress nounwind uwtable
define internal void @_ZN2cv3hal12cpu_baseline12_GLOBAL__N_119YUV420p2RGB8InvokerILi0ELi3EED2Ev(ptr noundef nonnull align 8 dereferenceable(72) %0) unnamed_addr #2 align 2 {
  %2 = alloca ptr, align 8
  store ptr %0, ptr %2, align 8
  %3 = load ptr, ptr %2, align 8
  call void @_ZN2cv16ParallelLoopBodyD2Ev(ptr noundef nonnull align 8 dereferenceable(8) %3) #10
  ret void
}

; Function Attrs: mustprogress nounwind uwtable
define linkonce_odr hidden void @_ZN2cv5RangeC2Eii(ptr noundef nonnull align 4 dereferenceable(8) %0, i32 noundef %1, i32 noundef %2) unnamed_addr #2 comdat align 2 {
  %4 = alloca ptr, align 8
  %5 = alloca i32, align 4
  %6 = alloca i32, align 4
  store ptr %0, ptr %4, align 8
  store i32 %1, ptr %5, align 4
  store i32 %2, ptr %6, align 4
  %7 = load ptr, ptr %4, align 8
  %8 = getelementptr inbounds %"class.cv::Range", ptr %7, i32 0, i32 0
  %9 = load i32, ptr %5, align 4
  store i32 %9, ptr %8, align 4
  %10 = getelementptr inbounds %"class.cv::Range", ptr %7, i32 0, i32 1
  %11 = load i32, ptr %6, align 4
  store i32 %11, ptr %10, align 4
  ret void
}

; Function Attrs: mustprogress nounwind uwtable
define internal void @_ZN2cv3hal12cpu_baseline12_GLOBAL__N_119YUV420p2RGB8InvokerILi0ELi3EEC2EPhmimPKhS7_S7_ii(ptr noundef nonnull align 8 dereferenceable(72) %0, ptr noundef %1, i64 noundef %2, i32 noundef %3, i64 noundef %4, ptr noundef %5, ptr noundef %6, ptr noundef %7, i32 noundef %8, i32 noundef %9) unnamed_addr #2 align 2 {
  %11 = alloca ptr, align 8
  %12 = alloca ptr, align 8
  %13 = alloca i64, align 8
  %14 = alloca i32, align 4
  %15 = alloca i64, align 8
  %16 = alloca ptr, align 8
  %17 = alloca ptr, align 8
  %18 = alloca ptr, align 8
  %19 = alloca i32, align 4
  %20 = alloca i32, align 4
  store ptr %0, ptr %11, align 8
  store ptr %1, ptr %12, align 8
  store i64 %2, ptr %13, align 8
  store i32 %3, ptr %14, align 4
  store i64 %4, ptr %15, align 8
  store ptr %5, ptr %16, align 8
  store ptr %6, ptr %17, align 8
  store ptr %7, ptr %18, align 8
  store i32 %8, ptr %19, align 4
  store i32 %9, ptr %20, align 4
  %21 = load ptr, ptr %11, align 8
  call void @_ZN2cv16ParallelLoopBodyC2Ev(ptr noundef nonnull align 8 dereferenceable(8) %21) #10
  store ptr getelementptr inbounds inrange(-16, 24) ({ [5 x ptr] }, ptr @_ZTVN2cv3hal12cpu_baseline12_GLOBAL__N_119YUV420p2RGB8InvokerILi0ELi3EEE, i32 0, i32 0, i32 2), ptr %21, align 8
  %22 = getelementptr inbounds %"struct.cv::hal::cpu_baseline::(anonymous namespace)::YUV420p2RGB8Invoker", ptr %21, i32 0, i32 1
  %23 = load ptr, ptr %12, align 8
  store ptr %23, ptr %22, align 8
  %24 = getelementptr inbounds %"struct.cv::hal::cpu_baseline::(anonymous namespace)::YUV420p2RGB8Invoker", ptr %21, i32 0, i32 2
  %25 = load i64, ptr %13, align 8
  store i64 %25, ptr %24, align 8
  %26 = getelementptr inbounds %"struct.cv::hal::cpu_baseline::(anonymous namespace)::YUV420p2RGB8Invoker", ptr %21, i32 0, i32 3
  %27 = load i32, ptr %14, align 4
  store i32 %27, ptr %26, align 8
  %28 = getelementptr inbounds %"struct.cv::hal::cpu_baseline::(anonymous namespace)::YUV420p2RGB8Invoker", ptr %21, i32 0, i32 4
  %29 = load ptr, ptr %16, align 8
  store ptr %29, ptr %28, align 8
  %30 = getelementptr inbounds %"struct.cv::hal::cpu_baseline::(anonymous namespace)::YUV420p2RGB8Invoker", ptr %21, i32 0, i32 5
  %31 = load ptr, ptr %17, align 8
  store ptr %31, ptr %30, align 8
  %32 = getelementptr inbounds %"struct.cv::hal::cpu_baseline::(anonymous namespace)::YUV420p2RGB8Invoker", ptr %21, i32 0, i32 6
  %33 = load ptr, ptr %18, align 8
  store ptr %33, ptr %32, align 8
  %34 = getelementptr inbounds %"struct.cv::hal::cpu_baseline::(anonymous namespace)::YUV420p2RGB8Invoker", ptr %21, i32 0, i32 7
  %35 = load i64, ptr %15, align 8
  store i64 %35, ptr %34, align 8
  %36 = getelementptr inbounds %"struct.cv::hal::cpu_baseline::(anonymous namespace)::YUV420p2RGB8Invoker", ptr %21, i32 0, i32 8
  %37 = load i32, ptr %19, align 4
  store i32 %37, ptr %36, align 8
  %38 = getelementptr inbounds %"struct.cv::hal::cpu_baseline::(anonymous namespace)::YUV420p2RGB8Invoker", ptr %21, i32 0, i32 9
  %39 = load i32, ptr %20, align 4
  store i32 %39, ptr %38, align 4
  ret void
}

; Function Attrs: mustprogress uwtable
define internal void @_ZN2cv3hal12cpu_baseline12_GLOBAL__N_114cvtYUV420p2RGBILi0ELi3EEEvPhmiimPKhS6_S6_ii(ptr noundef %0, i64 noundef %1, i32 noundef %2, i32 noundef %3, i64 noundef %4, ptr noundef %5, ptr noundef %6, ptr noundef %7, i32 noundef %8, i32 noundef %9) #0 personality ptr @__gxx_personality_v0 {
  %11 = alloca ptr, align 8
  %12 = alloca i64, align 8
  %13 = alloca i32, align 4
  %14 = alloca i32, align 4
  %15 = alloca i64, align 8
  %16 = alloca ptr, align 8
  %17 = alloca ptr, align 8
  %18 = alloca ptr, align 8
  %19 = alloca i32, align 4
  %20 = alloca i32, align 4
  %21 = alloca %"struct.cv::hal::cpu_baseline::(anonymous namespace)::YUV420p2RGB8Invoker", align 8
  %22 = alloca %"class.cv::Range", align 4
  %23 = alloca ptr, align 8
  %24 = alloca i32, align 4
  %25 = alloca %"class.cv::Range", align 4
  store ptr %0, ptr %11, align 8
  store i64 %1, ptr %12, align 8
  store i32 %2, ptr %13, align 4
  store i32 %3, ptr %14, align 4
  store i64 %4, ptr %15, align 8
  store ptr %5, ptr %16, align 8
  store ptr %6, ptr %17, align 8
  store ptr %7, ptr %18, align 8
  store i32 %8, ptr %19, align 4
  store i32 %9, ptr %20, align 4
  %26 = load ptr, ptr %11, align 8
  %27 = load i64, ptr %12, align 8
  %28 = load i32, ptr %13, align 4
  %29 = load i64, ptr %15, align 8
  %30 = load ptr, ptr %16, align 8
  %31 = load ptr, ptr %17, align 8
  %32 = load ptr, ptr %18, align 8
  %33 = load i32, ptr %19, align 4
  %34 = load i32, ptr %20, align 4
  call void @_ZN2cv3hal12cpu_baseline12_GLOBAL__N_119YUV420p2RGB8InvokerILi0ELi3EEC2EPhmimPKhS7_S7_ii(ptr noundef nonnull align 8 dereferenceable(72) %21, ptr noundef %26, i64 noundef %27, i32 noundef %28, i64 noundef %29, ptr noundef %30, ptr noundef %31, ptr noundef %32, i32 noundef %33, i32 noundef %34)
  %35 = load i32, ptr %13, align 4
  %36 = load i32, ptr %14, align 4
  %37 = mul nsw i32 %35, %36
  %38 = icmp sge i32 %37, 76800
  br i1 %38, label %39, label %48

39:                                               ; preds = %10
  %40 = load i32, ptr %14, align 4
  %41 = sdiv i32 %40, 2
  invoke void @_ZN2cv5RangeC2Eii(ptr noundef nonnull align 4 dereferenceable(8) %22, i32 noundef 0, i32 noundef %41)
          to label %42 unwind label %44

42:                                               ; preds = %39
  invoke void @_ZN2cv13parallel_for_ERKNS_5RangeERKNS_16ParallelLoopBodyEd(ptr noundef nonnull align 4 dereferenceable(8) %22, ptr noundef nonnull align 8 dereferenceable(8) %21, double noundef -1.000000e+00)
          to label %43 unwind label %44

43:                                               ; preds = %42
  br label %53

44:                                               ; preds = %51, %48, %42, %39
  %45 = landingpad { ptr, i32 }
          cleanup
  %46 = extractvalue { ptr, i32 } %45, 0
  store ptr %46, ptr %23, align 8
  %47 = extractvalue { ptr, i32 } %45, 1
  store i32 %47, ptr %24, align 4
  call void @_ZN2cv3hal12cpu_baseline12_GLOBAL__N_119YUV420p2RGB8InvokerILi0ELi3EED2Ev(ptr noundef nonnull align 8 dereferenceable(72) %21) #10
  br label %54

48:                                               ; preds = %10
  %49 = load i32, ptr %14, align 4
  %50 = sdiv i32 %49, 2
  invoke void @_ZN2cv5RangeC2Eii(ptr noundef nonnull align 4 dereferenceable(8) %25, i32 noundef 0, i32 noundef %50)
          to label %51 unwind label %44

51:                                               ; preds = %48
  invoke void @_ZNK2cv3hal12cpu_baseline12_GLOBAL__N_119YUV420p2RGB8InvokerILi0ELi3EEclERKNS_5RangeE(ptr noundef nonnull align 8 dereferenceable(72) %21, ptr noundef nonnull align 4 dereferenceable(8) %25)
          to label %52 unwind label %44

52:                                               ; preds = %51
  br label %53

53:                                               ; preds = %52, %43
  call void @_ZN2cv3hal12cpu_baseline12_GLOBAL__N_119YUV420p2RGB8InvokerILi0ELi3EED2Ev(ptr noundef nonnull align 8 dereferenceable(72) %21) #10
  ret void

54:                                               ; preds = %44
  %55 = load ptr, ptr %23, align 8
  %56 = load i32, ptr %24, align 4
  %57 = insertvalue { ptr, i32 } poison, ptr %55, 0
  %58 = insertvalue { ptr, i32 } %57, i32 %56, 1
  resume { ptr, i32 } %58
}